target datalayout = "e-m:e-p270:32:32-p271:32:32-p272:64:64-i64:64-i128:128-f80:128-n8:16:32:64-S128"
target triple = "x86_64-pc-linux-gnu"

%class.G1FreeIdSet = type { %class.Semaphore, ptr, i32, i32, i64, i64 }
%class.Semaphore = type { %class.PosixSemaphore }
%class.PosixSemaphore = type { %union.sem_t }
%union.sem_t = type { i64, [24 x i8] }

; Function Attrs: mustprogress nounwind uwtable
define linkonce_odr hidden noundef i32 @_ZN21CountLeadingZerosImplIjLm4EE4doitEj(i32 noundef %0) #1 comdat align 2 {
  %2 = alloca i32, align 4
  store i32 %0, ptr %2, align 4
  %3 = load i32, ptr %2, align 4
  %4 = call i32 @llvm.ctlz.i32(i32 %3, i1 true)
  ret i32 %4
}

; Function Attrs: mustprogress nounwind uwtable
define linkonce_odr hidden noundef i32 @_Z19count_leading_zerosIjEjT_(i32 noundef %0) #1 comdat {
  %2 = alloca i32, align 4
  store i32 %0, ptr %2, align 4
  %3 = load i32, ptr %2, align 4
  %4 = call noundef i32 @_ZN21CountLeadingZerosImplIjLm4EE4doitEj(i32 noundef %3)
  ret i32 %4
}

; Function Attrs: mustprogress nounwind uwtable
define linkonce_odr hidden noundef i32 @_Z5log2iIjTnNSt9enable_ifIXcvbsr3std11is_integralIT_EE5valueEiE4typeELi0EEiS1_(i32 noundef %0) #1 comdat {
  %2 = alloca i32, align 4
  %3 = alloca i32, align 4
  store i32 %0, ptr %2, align 4
  store i32 32, ptr %3, align 4
  %4 = load i32, ptr %2, align 4
  %5 = call noundef i32 @_Z19count_leading_zerosIjEjT_(i32 noundef %4)
  %6 = sub i32 32, %5
  %7 = sub i32 %6, 1
  ret i32 %7
}

; Function Attrs: mustprogress nounwind uwtable
define linkonce_odr hidden void @_ZN9SemaphoreC2Ej(ptr noundef nonnull align 8 dereferenceable(32) %0, i32 noundef %1) unnamed_addr #1 comdat align 2 {
  %3 = alloca ptr, align 8
  %4 = alloca i32, align 4
  store ptr %0, ptr %3, align 8
  store i32 %1, ptr %4, align 4
  %5 = load ptr, ptr %3, align 8
  %6 = getelementptr inbounds %class.Semaphore, ptr %5, i32 0, i32 0
  %7 = load i32, ptr %4, align 4
  call void @_ZN14PosixSemaphoreC1Ej(ptr noundef nonnull align 8 dereferenceable(32) %6, i32 noundef %7)
  ret void
}

; Function Attrs: mustprogress nounwind uwtable
define hidden void @_ZN11G1FreeIdSetC2Ejj(ptr noundef nonnull align 8 dereferenceable(64) %0, i32 noundef %1, i32 noundef %2) unnamed_addr #1 align 2 {
  %4 = alloca ptr, align 8
  %5 = alloca i32, align 4
  %6 = alloca i32, align 4
  %7 = alloca i32, align 4
  %8 = alloca i32, align 4
  store ptr %0, ptr %4, align 8
  store i32 %1, ptr %5, align 4
  store i32 %2, ptr %6, align 4
  %9 = load ptr, ptr %4, align 8
  %10 = getelementptr inbounds %class.G1FreeIdSet, ptr %9, i32 0, i32 0
  %11 = load i32, ptr %6, align 4
  call void @_ZN9SemaphoreC2Ej(ptr noundef nonnull align 8 dereferenceable(32) %10, i32 noundef %11)
  %12 = getelementptr inbounds %class.G1FreeIdSet, ptr %9, i32 0, i32 1
  store ptr null, ptr %12, align 8
  %13 = getelementptr inbounds %class.G1FreeIdSet, ptr %9, i32 0, i32 2
  %14 = load i32, ptr %5, align 4
  store i32 %14, ptr %13, align 8
  %15 = getelementptr inbounds %class.G1FreeIdSet, ptr %9, i32 0, i32 3
  %16 = load i32, ptr %6, align 4
  store i32 %16, ptr %15, align 4
  %17 = getelementptr inbounds %class.G1FreeIdSet, ptr %9, i32 0, i32 4
  store i64 0, ptr %17, align 8
  %18 = getelementptr inbounds %class.G1FreeIdSet, ptr %9, i32 0, i32 5
  store volatile i64 0, ptr %18, align 8
  %19 = load i32, ptr %6, align 4
  %20 = call noundef i32 @_Z5log2iIjTnNSt9enable_ifIXcvbsr3std11is_integralIT_EE5valueEiE4typeELi0EEiS1_(i32 noundef %19)
  %21 = add nsw i32 %20, 1
  store i32 %21, ptr %7, align 4
  %22 = load i32, ptr %7, align 4
  %23 = zext i32 %22 to i64
  %24 = shl i64 1, %23
  %25 = sub i64 %24, 1
  %26 = getelementptr inbounds %class.G1FreeIdSet, ptr %9, i32 0, i32 4
  store i64 %25, ptr %26, align 8
  %27 = load i32, ptr %6, align 4
  %28 = zext i32 %27 to i64
  %29 = mul i64 %28, 4
  %30 = call noundef ptr @_Z12AllocateHeapm8MEMFLAGSN17AllocFailStrategy13AllocFailEnumE(i64 noundef %29, i8 noundef zeroext 5, i32 noundef 0)
  %31 = getelementptr inbounds %class.G1FreeIdSet, ptr %9, i32 0, i32 1
  store ptr %30, ptr %31, align 8
  store i32 0, ptr %8, align 4
  br label %32

32:                                               ; preds = %44, %3
  %33 = load i32, ptr %8, align 4
  %34 = load i32, ptr %6, align 4
  %35 = icmp ult i32 %33, %34
  br i1 %35, label %36, label %47

36:                                               ; preds = %32
  %37 = load i32, ptr %8, align 4
  %38 = add i32 %37, 1
  %39 = getelementptr inbounds %class.G1FreeIdSet, ptr %9, i32 0, i32 1
  %40 = load ptr, ptr %39, align 8
  %41 = load i32, ptr %8, align 4
  %42 = zext i32 %41 to i64
  %43 = getelementptr inbounds i32, ptr %40, i64 %42
  store i32 %38, ptr %43, align 4
  br label %44

44:                                               ; preds = %36
  %45 = load i32, ptr %8, align 4
  %46 = add i32 %45, 1
  store i32 %46, ptr %8, align 4
  br label %32, !llvm.loop !6

47:                                               ; preds = %32
  ret void
}