; Function Attrs: mustprogress nounwind uwtable
define hidden void @_ZN11G1FreeIdSetC2Ejj(ptr noundef nonnull align 8 dereferenceable(64) %0, i32 noundef %1, i32 noundef %2) unnamed_addr #0 align 2 {
  tail call void @_ZN14PosixSemaphoreC1Ej(ptr noundef nonnull align 8 dereferenceable(32) %0, i32 noundef %2) #5
  %4 = getelementptr inbounds i8, ptr %0, i64 32
  store ptr null, ptr %4, align 8
  %5 = getelementptr inbounds i8, ptr %0, i64 40
  store i32 %1, ptr %5, align 8
  %6 = getelementptr inbounds i8, ptr %0, i64 44
  store i32 %2, ptr %6, align 4
  %7 = getelementptr inbounds i8, ptr %0, i64 48
  %8 = getelementptr inbounds i8, ptr %0, i64 56
  store volatile i64 0, ptr %8, align 8
  %9 = tail call noundef range(i32 0, 33) i32 @llvm.ctlz.i32(i32 %2, i1 true)
  %10 = sub nuw nsw i32 32, %9
  %11 = zext nneg i32 %10 to i64
  %notmask = shl nsw i64 -1, %11
  %12 = xor i64 %notmask, -1
  store i64 %12, ptr %7, align 8
  %13 = zext i32 %2 to i64
  %14 = shl nuw nsw i64 %13, 2
  %15 = tail call noundef ptr @_Z12AllocateHeapm8MEMFLAGSN17AllocFailStrategy13AllocFailEnumE(i64 noundef %14, i8 noundef zeroext 5, i32 noundef 0) #5
  store ptr %15, ptr %4, align 8
  %.not = icmp eq i32 %2, 0
  br i1 %.not, label %._crit_edge, label %.lr.ph

.lr.ph:                                           ; preds = %3, %.lr.ph
  %indvars.iv = phi i64 [ %indvars.iv.next, %.lr.ph ], [ 0, %3 ]
  %indvars.iv.next = add nuw nsw i64 %indvars.iv, 1
  %16 = load ptr, ptr %4, align 8
  %17 = getelementptr inbounds i32, ptr %16, i64 %indvars.iv
  %18 = trunc nuw i64 %indvars.iv.next to i32
  store i32 %18, ptr %17, align 4
  %exitcond.not = icmp eq i64 %indvars.iv.next, %13
  br i1 %exitcond.not, label %._crit_edge, label %.lr.ph, !llvm.loop !6

._crit_edge:                                      ; preds = %.lr.ph, %3
  ret void
}